target datalayout = "e-m:e-p270:32:32-p271:32:32-p272:64:64-i64:64-i128:128-f80:128-n8:16:32:64-S128"
target triple = "x86_64-pc-linux-gnu"

%"struct.pxrInternal_v0_24__pxrReserved__::Arch_Unmapper" = type { i64 }

; Function Attrs: mustprogress nounwind uwtable
define void @_ZNK32pxrInternal_v0_24__pxrReserved__13Arch_UnmapperclEPKc(ptr noundef nonnull align 8 dereferenceable(8) %0, ptr noundef %1) #2 align 2 {
  %3 = alloca ptr, align 8
  %4 = alloca ptr, align 8
  %5 = alloca ptr, align 8
  store ptr %0, ptr %3, align 8
  store ptr %1, ptr %4, align 8
  %6 = load ptr, ptr %3, align 8
  %7 = load ptr, ptr %4, align 8
  store ptr %7, ptr %5, align 8
  %8 = load ptr, ptr %5, align 8
  %9 = icmp ne ptr %8, null
  br i1 %9, label %11, label %10

10:                                               ; preds = %2
  br label %16

11:                                               ; preds = %2
  %12 = load ptr, ptr %5, align 8
  %13 = getelementptr inbounds nuw %"struct.pxrInternal_v0_24__pxrReserved__::Arch_Unmapper", ptr %6, i32 0, i32 0
  %14 = load i64, ptr %13, align 8
  %15 = call i32 @munmap(ptr noundef %12, i64 noundef %14) #6
  br label %16

16:                                               ; preds = %11, %10
  ret void
}

; Function Attrs: mustprogress nounwind uwtable
define void @_ZNK32pxrInternal_v0_24__pxrReserved__13Arch_UnmapperclEPc(ptr noundef nonnull align 8 dereferenceable(8) %0, ptr noundef %1) #2 align 2 {
  %3 = alloca ptr, align 8
  %4 = alloca ptr, align 8
  store ptr %0, ptr %3, align 8
  store ptr %1, ptr %4, align 8
  %5 = load ptr, ptr %3, align 8
  %6 = load ptr, ptr %4, align 8
  call void @_ZNK32pxrInternal_v0_24__pxrReserved__13Arch_UnmapperclEPKc(ptr noundef nonnull align 8 dereferenceable(8) %5, ptr noundef %6)
  ret void
}